target datalayout = "e-m:e-p270:32:32-p271:32:32-p272:64:64-i64:64-i128:128-f80:128-n8:16:32:64-S128"
target triple = "x86_64-pc-linux-gnu"

%"struct.cv::gapi::fluid::View::Cache" = type <{ %"class.std::vector", %"struct.cv::GMatDesc", i32, [4 x i8] }>
%"class.std::vector" = type { %"struct.std::_Vector_base" }
%"struct.std::_Vector_base" = type { %"struct.std::_Vector_base<const unsigned char *, std::allocator<const unsigned char *>>::_Vector_impl" }
%"struct.std::_Vector_base<const unsigned char *, std::allocator<const unsigned char *>>::_Vector_impl" = type { %"struct.std::_Vector_base<const unsigned char *, std::allocator<const unsigned char *>>::_Vector_impl_data" }
%"struct.std::_Vector_base<const unsigned char *, std::allocator<const unsigned char *>>::_Vector_impl_data" = type { ptr, ptr, ptr }
%"struct.cv::GMatDesc" = type { i32, i32, %"class.cv::Size_", i8, %"class.std::vector.5" }
%"class.cv::Size_" = type { i32, i32 }
%"class.std::vector.5" = type { %"struct.std::_Vector_base.6" }
%"struct.std::_Vector_base.6" = type { %"struct.std::_Vector_base<int, std::allocator<int>>::_Vector_impl" }
%"struct.std::_Vector_base<int, std::allocator<int>>::_Vector_impl" = type { %"struct.std::_Vector_base<int, std::allocator<int>>::_Vector_impl_data" }
%"struct.std::_Vector_base<int, std::allocator<int>>::_Vector_impl_data" = type { ptr, ptr, ptr }

; Function Attrs: mustprogress nounwind uwtable
define linkonce_odr hidden noundef nonnull align 8 dereferenceable(8) ptr @_ZNSt6vectorIPKhSaIS1_EEixEm(ptr noundef nonnull align 8 dereferenceable(24) %0, i64 noundef %1) #8 comdat align 2 {
  %3 = alloca ptr, align 8
  %4 = alloca i64, align 8
  store ptr %0, ptr %3, align 8, !tbaa !77
  store i64 %1, ptr %4, align 8, !tbaa !46
  %5 = load ptr, ptr %3, align 8
  %6 = getelementptr inbounds nuw %"struct.std::_Vector_base", ptr %5, i32 0, i32 0
  %7 = getelementptr inbounds nuw %"struct.std::_Vector_base<const unsigned char *, std::allocator<const unsigned char *>>::_Vector_impl_data", ptr %6, i32 0, i32 0
  %8 = load ptr, ptr %7, align 8, !tbaa !79
  %9 = load i64, ptr %4, align 8, !tbaa !46
  %10 = getelementptr inbounds nuw ptr, ptr %8, i64 %9
  ret ptr %10
}

; Function Attrs: mustprogress uwtable
define hidden void @_ZNK2cv4gapi5fluid13BufferStorage13updateInCacheERNS1_4View5CacheEii(ptr noundef nonnull align 8 dereferenceable(104) %0, ptr noundef nonnull align 8 dereferenceable(76) %1, i32 noundef %2, i32 noundef %3) #4 align 2 {
  %5 = alloca ptr, align 8
  %6 = alloca ptr, align 8
  %7 = alloca i32, align 4
  %8 = alloca i32, align 4
  %9 = alloca i32, align 4
  store ptr %0, ptr %5, align 8, !tbaa !48
  store ptr %1, ptr %6, align 8, !tbaa !59
  store i32 %2, ptr %7, align 4, !tbaa !20
  store i32 %3, ptr %8, align 4, !tbaa !20
  %10 = load ptr, ptr %5, align 8
  call void @llvm.lifetime.start.p0(i64 4, ptr %9) #3
  store i32 0, ptr %9, align 4, !tbaa !20
  br label %11

11:                                               ; preds = %34, %4
  %12 = load i32, ptr %9, align 4, !tbaa !20
  %13 = load i32, ptr %8, align 4, !tbaa !20
  %14 = icmp slt i32 %12, %13
  br i1 %14, label %16, label %15

15:                                               ; preds = %11
  call void @llvm.lifetime.end.p0(i64 4, ptr %9) #3
  br label %37

16:                                               ; preds = %11
  %17 = load i32, ptr %7, align 4, !tbaa !20
  %18 = load i32, ptr %9, align 4, !tbaa !20
  %19 = add nsw i32 %17, %18
  %20 = load ptr, ptr %6, align 8, !tbaa !59
  %21 = getelementptr inbounds nuw %"struct.cv::gapi::fluid::View::Cache", ptr %20, i32 0, i32 1
  %22 = getelementptr inbounds nuw %"struct.cv::GMatDesc", ptr %21, i32 0, i32 2
  %23 = getelementptr inbounds nuw %"class.cv::Size_", ptr %22, i32 0, i32 1
  %24 = load i32, ptr %23, align 4, !tbaa !61
  %25 = load ptr, ptr %10, align 8, !tbaa !21
  %26 = getelementptr inbounds ptr, ptr %25, i64 5
  %27 = load ptr, ptr %26, align 8
  %28 = call noundef ptr %27(ptr noundef nonnull align 8 dereferenceable(104) %10, i32 noundef %19, i32 noundef %24)
  %29 = load ptr, ptr %6, align 8, !tbaa !59
  %30 = getelementptr inbounds nuw %"struct.cv::gapi::fluid::View::Cache", ptr %29, i32 0, i32 0
  %31 = load i32, ptr %9, align 4, !tbaa !20
  %32 = sext i32 %31 to i64
  %33 = call noundef nonnull align 8 dereferenceable(8) ptr @_ZNSt6vectorIPKhSaIS1_EEixEm(ptr noundef nonnull align 8 dereferenceable(24) %30, i64 noundef %32) #3
  store ptr %28, ptr %33, align 8, !tbaa !29
  br label %34

34:                                               ; preds = %16
  %35 = load i32, ptr %9, align 4, !tbaa !20
  %36 = add nsw i32 %35, 1
  store i32 %36, ptr %9, align 4, !tbaa !20
  br label %11, !llvm.loop !76

37:                                               ; preds = %15
  ret void
}