; Function Attrs: mustprogress uwtable
define hidden void @_ZNK2cv4gapi5fluid13BufferStorage13updateInCacheERNS1_4View5CacheEii(ptr noundef nonnull align 8 dereferenceable(104) %0, ptr noundef nonnull readonly align 8 captures(none) dereferenceable(76) %1, i32 noundef %2, i32 noundef %3) local_unnamed_addr #4 align 2 {
  %5 = icmp sgt i32 %3, 0
  br i1 %5, label %.lr.ph, label %._crit_edge

.lr.ph:                                           ; preds = %4
  %6 = getelementptr inbounds nuw i8, ptr %1, i64 36
  %wide.trip.count = zext nneg i32 %3 to i64
  br label %7

._crit_edge:                                      ; preds = %7, %4
  ret void

7:                                                ; preds = %.lr.ph, %7
  %indvars.iv = phi i64 [ 0, %.lr.ph ], [ %indvars.iv.next, %7 ]
  %8 = load i32, ptr %6, align 4, !tbaa !44
  %9 = load ptr, ptr %0, align 8, !tbaa !13
  %10 = getelementptr inbounds nuw i8, ptr %9, i64 40
  %11 = load ptr, ptr %10, align 8
  %12 = trunc i64 %indvars.iv to i32
  %13 = add i32 %2, %12
  %14 = tail call noundef ptr %11(ptr noundef nonnull align 8 dereferenceable(104) %0, i32 noundef %13, i32 noundef %8)
  %15 = load ptr, ptr %1, align 8, !tbaa !59
  %16 = getelementptr inbounds nuw ptr, ptr %15, i64 %indvars.iv
  store ptr %14, ptr %16, align 8, !tbaa !60
  %indvars.iv.next = add nuw nsw i64 %indvars.iv, 1
  %exitcond.not = icmp eq i64 %indvars.iv.next, %wide.trip.count
  br i1 %exitcond.not, label %._crit_edge, label %7, !llvm.loop !61
}